target datalayout = "e-m:e-p270:32:32-p271:32:32-p272:64:64-i64:64-i128:128-f80:128-n8:16:32:64-S128"
target triple = "x86_64-pc-linux-gnu"

%struct.prov_rc2_ctx_st = type { %struct.prov_cipher_ctx_st, %union.anon.0, i64 }
%struct.prov_cipher_ctx_st = type { [16 x i8], [16 x i8], [16 x i8], ptr, %union.anon, i32, i64, i64, i64, i64, i32, i8, i32, ptr, i32, i64, i32, i64, i32, ptr, ptr, ptr }
%union.anon = type { ptr }
%union.anon.0 = type { double, [248 x i8] }
%struct.ossl_param_st = type { ptr, i32, ptr, i64, i64 }

@.str = private unnamed_addr constant [58 x i8] c"../openssl/providers/implementations/ciphers/cipher_rc2.c\00", align 1
@.str.1 = private unnamed_addr constant [8 x i8] c"keybits\00", align 1
@.str.2 = private unnamed_addr constant [20 x i8] c"algorithm-id-params\00", align 1
@__func__.rc2_set_ctx_params = private unnamed_addr constant [19 x i8] c"rc2_set_ctx_params\00", align 1

; Function Attrs: inlinehint nounwind uwtable
define internal i32 @ossl_param_is_empty(ptr noundef %0) #4 {
  %2 = alloca ptr, align 8
  store ptr %0, ptr %2, align 8, !tbaa !24
  %3 = load ptr, ptr %2, align 8, !tbaa !24
  %4 = icmp eq ptr %3, null
  br i1 %4, label %10, label %5

5:                                                ; preds = %1
  %6 = load ptr, ptr %2, align 8, !tbaa !24
  %7 = getelementptr inbounds nuw %struct.ossl_param_st, ptr %6, i32 0, i32 0
  %8 = load ptr, ptr %7, align 8, !tbaa !37
  %9 = icmp eq ptr %8, null
  br label %10

10:                                               ; preds = %5, %1
  %11 = phi i1 [ true, %1 ], [ %9, %5 ]
  %12 = zext i1 %11 to i32
  ret i32 %12
}

; Function Attrs: nounwind uwtable
define internal i32 @rc2_set_ctx_params(ptr noundef %0, ptr noundef %1) #0 {
  %3 = alloca i32, align 4
  %4 = alloca ptr, align 8
  %5 = alloca ptr, align 8
  %6 = alloca ptr, align 8
  %7 = alloca ptr, align 8
  %8 = alloca i32, align 4
  %9 = alloca ptr, align 8
  %10 = alloca i64, align 8
  %11 = alloca ptr, align 8
  %12 = alloca i32, align 4
  %13 = alloca [16 x i8], align 16
  store ptr %0, ptr %4, align 8, !tbaa !3
  store ptr %1, ptr %5, align 8, !tbaa !24
  call void @llvm.lifetime.start.p0(i64 8, ptr %6) #5
  %14 = load ptr, ptr %4, align 8, !tbaa !3
  store ptr %14, ptr %6, align 8, !tbaa !7
  call void @llvm.lifetime.start.p0(i64 8, ptr %7) #5
  %15 = load ptr, ptr %5, align 8, !tbaa !24
  %16 = call i32 @ossl_param_is_empty(ptr noundef %15)
  %17 = icmp ne i32 %16, 0
  br i1 %17, label %18, label %19

18:                                               ; preds = %2
  store i32 1, ptr %3, align 4
  store i32 1, ptr %8, align 4
  br label %114

19:                                               ; preds = %2
  %20 = load ptr, ptr %4, align 8, !tbaa !3
  %21 = load ptr, ptr %5, align 8, !tbaa !24
  %22 = call i32 @ossl_cipher_var_keylen_set_ctx_params(ptr noundef %20, ptr noundef %21)
  %23 = icmp ne i32 %22, 0
  br i1 %23, label %25, label %24

24:                                               ; preds = %19
  store i32 0, ptr %3, align 4
  store i32 1, ptr %8, align 4
  br label %114

25:                                               ; preds = %19
  %26 = load ptr, ptr %5, align 8, !tbaa !24
  %27 = call ptr @OSSL_PARAM_locate_const(ptr noundef %26, ptr noundef @.str.1)
  store ptr %27, ptr %7, align 8, !tbaa !24
  %28 = load ptr, ptr %7, align 8, !tbaa !24
  %29 = icmp ne ptr %28, null
  br i1 %29, label %30, label %38

30:                                               ; preds = %25
  %31 = load ptr, ptr %7, align 8, !tbaa !24
  %32 = load ptr, ptr %6, align 8, !tbaa !7
  %33 = getelementptr inbounds nuw %struct.prov_rc2_ctx_st, ptr %32, i32 0, i32 2
  %34 = call i32 @OSSL_PARAM_get_size_t(ptr noundef %31, ptr noundef %33)
  %35 = icmp ne i32 %34, 0
  br i1 %35, label %37, label %36

36:                                               ; preds = %30
  call void @ERR_new()
  call void @ERR_set_debug(ptr noundef @.str, i32 noundef 187, ptr noundef @__func__.rc2_set_ctx_params)
  call void (i32, i32, ptr, ...) @ERR_set_error(i32 noundef 57, i32 noundef 103, ptr noundef null)
  store i32 0, ptr %3, align 4
  store i32 1, ptr %8, align 4
  br label %114

37:                                               ; preds = %30
  br label %38

38:                                               ; preds = %37, %25
  %39 = load ptr, ptr %5, align 8, !tbaa !24
  %40 = call ptr @OSSL_PARAM_locate_const(ptr noundef %39, ptr noundef @.str.2)
  store ptr %40, ptr %7, align 8, !tbaa !24
  %41 = load ptr, ptr %7, align 8, !tbaa !24
  %42 = icmp ne ptr %41, null
  br i1 %42, label %43, label %113

43:                                               ; preds = %38
  call void @llvm.lifetime.start.p0(i64 8, ptr %9) #5
  store ptr null, ptr %9, align 8, !tbaa !31
  call void @llvm.lifetime.start.p0(i64 8, ptr %10) #5
  store i64 0, ptr %10, align 8, !tbaa !20
  call void @llvm.lifetime.start.p0(i64 8, ptr %11) #5
  %44 = load ptr, ptr %7, align 8, !tbaa !24
  %45 = getelementptr inbounds nuw %struct.ossl_param_st, ptr %44, i32 0, i32 2
  %46 = load ptr, ptr %45, align 8, !tbaa !26
  store ptr %46, ptr %11, align 8, !tbaa !21
  call void @llvm.lifetime.start.p0(i64 4, ptr %12) #5
  store i32 1, ptr %12, align 4, !tbaa !19
  call void @llvm.lifetime.start.p0(i64 16, ptr %13) #5
  %47 = load ptr, ptr %7, align 8, !tbaa !24
  %48 = getelementptr inbounds nuw %struct.ossl_param_st, ptr %47, i32 0, i32 1
  %49 = load i32, ptr %48, align 8, !tbaa !30
  %50 = icmp ne i32 %49, 5
  br i1 %50, label %96, label %51

51:                                               ; preds = %43
  %52 = load ptr, ptr %6, align 8, !tbaa !7
  %53 = getelementptr inbounds nuw %struct.prov_rc2_ctx_st, ptr %52, i32 0, i32 0
  %54 = getelementptr inbounds nuw %struct.prov_cipher_ctx_st, ptr %53, i32 0, i32 7
  %55 = load i64, ptr %54, align 8, !tbaa !33
  %56 = icmp ugt i64 %55, 16
  br i1 %56, label %96, label %57

57:                                               ; preds = %51
  %58 = load ptr, ptr %7, align 8, !tbaa !24
  %59 = getelementptr inbounds nuw %struct.ossl_param_st, ptr %58, i32 0, i32 3
  %60 = load i64, ptr %59, align 8, !tbaa !35
  %61 = call ptr @d2i_ASN1_TYPE(ptr noundef null, ptr noundef %11, i64 noundef %60)
  store ptr %61, ptr %9, align 8, !tbaa !31
  %62 = icmp eq ptr %61, null
  br i1 %62, label %96, label %63

63:                                               ; preds = %57
  %64 = load ptr, ptr %9, align 8, !tbaa !31
  %65 = getelementptr inbounds [16 x i8], ptr %13, i64 0, i64 0
  %66 = load ptr, ptr %6, align 8, !tbaa !7
  %67 = getelementptr inbounds nuw %struct.prov_rc2_ctx_st, ptr %66, i32 0, i32 0
  %68 = getelementptr inbounds nuw %struct.prov_cipher_ctx_st, ptr %67, i32 0, i32 7
  %69 = load i64, ptr %68, align 8, !tbaa !33
  %70 = trunc i64 %69 to i32
  %71 = call i32 @ASN1_TYPE_get_int_octetstring(ptr noundef %64, ptr noundef %10, ptr noundef %65, i32 noundef %70)
  %72 = sext i32 %71 to i64
  %73 = load ptr, ptr %6, align 8, !tbaa !7
  %74 = getelementptr inbounds nuw %struct.prov_rc2_ctx_st, ptr %73, i32 0, i32 0
  %75 = getelementptr inbounds nuw %struct.prov_cipher_ctx_st, ptr %74, i32 0, i32 7
  %76 = load i64, ptr %75, align 8, !tbaa !33
  %77 = icmp ne i64 %72, %76
  br i1 %77, label %96, label %78

78:                                               ; preds = %63
  %79 = load ptr, ptr %6, align 8, !tbaa !7
  %80 = getelementptr inbounds nuw %struct.prov_rc2_ctx_st, ptr %79, i32 0, i32 0
  %81 = getelementptr inbounds [16 x i8], ptr %13, i64 0, i64 0
  %82 = load ptr, ptr %6, align 8, !tbaa !7
  %83 = getelementptr inbounds nuw %struct.prov_rc2_ctx_st, ptr %82, i32 0, i32 0
  %84 = getelementptr inbounds nuw %struct.prov_cipher_ctx_st, ptr %83, i32 0, i32 7
  %85 = load i64, ptr %84, align 8, !tbaa !33
  %86 = call i32 @ossl_cipher_generic_initiv(ptr noundef %80, ptr noundef %81, i64 noundef %85)
  %87 = icmp ne i32 %86, 0
  br i1 %87, label %88, label %96

88:                                               ; preds = %78
  %89 = load i64, ptr %10, align 8, !tbaa !20
  %90 = trunc i64 %89 to i32
  %91 = call i32 @rc2_magic_to_keybits(i32 noundef %90)
  %92 = sext i32 %91 to i64
  %93 = load ptr, ptr %6, align 8, !tbaa !7
  %94 = getelementptr inbounds nuw %struct.prov_rc2_ctx_st, ptr %93, i32 0, i32 2
  store i64 %92, ptr %94, align 8, !tbaa !9
  %95 = icmp eq i64 %92, 0
  br i1 %95, label %96, label %97

96:                                               ; preds = %88, %78, %63, %57, %51, %43
  call void @ERR_new()
  call void @ERR_set_debug(ptr noundef @.str, i32 noundef 207, ptr noundef @__func__.rc2_set_ctx_params)
  call void (i32, i32, ptr, ...) @ERR_set_error(i32 noundef 57, i32 noundef 104, ptr noundef null)
  store i32 0, ptr %12, align 4, !tbaa !19
  br label %97

97:                                               ; preds = %96, %88
  %98 = load ptr, ptr %9, align 8, !tbaa !31
  call void @ASN1_TYPE_free(ptr noundef %98)
  %99 = load i32, ptr %12, align 4, !tbaa !19
  %100 = icmp eq i32 %99, 0
  br i1 %100, label %101, label %102

101:                                              ; preds = %97
  store i32 0, ptr %3, align 4
  store i32 1, ptr %8, align 4
  br label %110

102:                                              ; preds = %97
  %103 = load ptr, ptr %6, align 8, !tbaa !7
  %104 = getelementptr inbounds nuw %struct.prov_rc2_ctx_st, ptr %103, i32 0, i32 2
  %105 = load i64, ptr %104, align 8, !tbaa !9
  %106 = udiv i64 %105, 8
  %107 = load ptr, ptr %6, align 8, !tbaa !7
  %108 = getelementptr inbounds nuw %struct.prov_rc2_ctx_st, ptr %107, i32 0, i32 0
  %109 = getelementptr inbounds nuw %struct.prov_cipher_ctx_st, ptr %108, i32 0, i32 6
  store i64 %106, ptr %109, align 8, !tbaa !36
  store i32 0, ptr %8, align 4
  br label %110

110:                                              ; preds = %102, %101
  call void @llvm.lifetime.end.p0(i64 16, ptr %13) #5
  call void @llvm.lifetime.end.p0(i64 4, ptr %12) #5
  call void @llvm.lifetime.end.p0(i64 8, ptr %11) #5
  call void @llvm.lifetime.end.p0(i64 8, ptr %10) #5
  call void @llvm.lifetime.end.p0(i64 8, ptr %9) #5
  %111 = load i32, ptr %8, align 4
  switch i32 %111, label %114 [
    i32 0, label %112
  ]

112:                                              ; preds = %110
  br label %113

113:                                              ; preds = %112, %38
  store i32 1, ptr %3, align 4
  store i32 1, ptr %8, align 4
  br label %114

114:                                              ; preds = %113, %110, %36, %24, %18
  call void @llvm.lifetime.end.p0(i64 8, ptr %7) #5
  call void @llvm.lifetime.end.p0(i64 8, ptr %6) #5
  %115 = load i32, ptr %3, align 4
  ret i32 %115
}