; Function Attrs: nounwind uwtable
define internal range(i32 0, 2) i32 @rc2_set_ctx_params(ptr noundef %0, ptr noundef %1) #0 {
  %3 = alloca i64, align 8
  %4 = alloca ptr, align 8
  %5 = alloca [16 x i8], align 16
  %6 = icmp eq ptr %1, null
  br i1 %6, label %ossl_param_is_empty.exit.thread, label %ossl_param_is_empty.exit

ossl_param_is_empty.exit:                         ; preds = %2
  %7 = load ptr, ptr %1, align 8, !tbaa !27
  %.not = icmp eq ptr %7, null
  br i1 %.not, label %ossl_param_is_empty.exit.thread, label %8

8:                                                ; preds = %ossl_param_is_empty.exit
  %9 = tail call i32 @ossl_cipher_var_keylen_set_ctx_params(ptr noundef %0, ptr noundef nonnull %1) #5
  %.not34 = icmp eq i32 %9, 0
  br i1 %.not34, label %ossl_param_is_empty.exit.thread, label %10

10:                                               ; preds = %8
  %11 = tail call ptr @OSSL_PARAM_locate_const(ptr noundef nonnull %1, ptr noundef nonnull @.str.1) #5
  %.not35 = icmp eq ptr %11, null
  br i1 %.not35, label %16, label %12

12:                                               ; preds = %10
  %13 = getelementptr inbounds nuw i8, ptr %0, i64 448
  %14 = tail call i32 @OSSL_PARAM_get_size_t(ptr noundef nonnull %11, ptr noundef nonnull %13) #5
  %.not36 = icmp eq i32 %14, 0
  br i1 %.not36, label %15, label %16

15:                                               ; preds = %12
  tail call void @ERR_new() #5
  tail call void @ERR_set_debug(ptr noundef nonnull @.str, i32 noundef 187, ptr noundef nonnull @__func__.rc2_set_ctx_params) #5
  tail call void (i32, i32, ptr, ...) @ERR_set_error(i32 noundef 57, i32 noundef 103, ptr noundef null) #5
  br label %ossl_param_is_empty.exit.thread

16:                                               ; preds = %12, %10
  %17 = tail call ptr @OSSL_PARAM_locate_const(ptr noundef nonnull %1, ptr noundef nonnull @.str.2) #5
  %.not37 = icmp eq ptr %17, null
  br i1 %.not37, label %ossl_param_is_empty.exit.thread, label %18

18:                                               ; preds = %16
  call void @llvm.lifetime.start.p0(i64 8, ptr nonnull %3) #5
  store i64 0, ptr %3, align 8, !tbaa !18
  call void @llvm.lifetime.start.p0(i64 8, ptr nonnull %4) #5
  %19 = getelementptr inbounds nuw i8, ptr %17, i64 16
  %20 = load ptr, ptr %19, align 8, !tbaa !22
  store ptr %20, ptr %4, align 8, !tbaa !19
  call void @llvm.lifetime.start.p0(i64 16, ptr nonnull %5) #5
  %21 = getelementptr inbounds nuw i8, ptr %17, i64 8
  %22 = load i32, ptr %21, align 8, !tbaa !24
  %.not38 = icmp eq i32 %22, 5
  br i1 %.not38, label %23, label %.critedge.critedge

23:                                               ; preds = %18
  %24 = getelementptr inbounds nuw i8, ptr %0, i64 80
  %25 = load i64, ptr %24, align 8, !tbaa !25
  %26 = icmp ugt i64 %25, 16
  br i1 %26, label %.critedge.critedge, label %27

27:                                               ; preds = %23
  %28 = getelementptr inbounds nuw i8, ptr %17, i64 24
  %29 = load i64, ptr %28, align 8, !tbaa !28
  %30 = call ptr @d2i_ASN1_TYPE(ptr noundef null, ptr noundef nonnull %4, i64 noundef %29) #5
  %31 = icmp eq ptr %30, null
  br i1 %31, label %.critedge.critedge, label %32

32:                                               ; preds = %27
  %33 = load i64, ptr %24, align 8, !tbaa !25
  %34 = trunc i64 %33 to i32
  %35 = call i32 @ASN1_TYPE_get_int_octetstring(ptr noundef nonnull %30, ptr noundef nonnull %3, ptr noundef nonnull %5, i32 noundef %34) #5
  %36 = sext i32 %35 to i64
  %37 = load i64, ptr %24, align 8, !tbaa !25
  %.not39 = icmp eq i64 %37, %36
  br i1 %.not39, label %38, label %.critedge.critedge

38:                                               ; preds = %32
  %39 = call i32 @ossl_cipher_generic_initiv(ptr noundef nonnull %0, ptr noundef nonnull %5, i64 noundef %36) #5
  %.not40 = icmp eq i32 %39, 0
  br i1 %.not40, label %.critedge.critedge, label %40

40:                                               ; preds = %38
  %41 = load i64, ptr %3, align 8, !tbaa !18
  %42 = trunc i64 %41 to i32
  %43 = call fastcc i32 @rc2_magic_to_keybits(i32 noundef %42)
  %44 = zext nneg i32 %43 to i64
  %45 = getelementptr inbounds nuw i8, ptr %0, i64 448
  store i64 %44, ptr %45, align 8, !tbaa !3
  %46 = icmp eq i32 %43, 0
  br i1 %46, label %.critedge.critedge, label %47

.critedge.critedge:                               ; preds = %40, %38, %32, %27, %23, %18
  %.025 = phi ptr [ null, %18 ], [ null, %23 ], [ null, %27 ], [ %30, %32 ], [ %30, %40 ], [ %30, %38 ]
  call void @ERR_new() #5
  call void @ERR_set_debug(ptr noundef nonnull @.str, i32 noundef 207, ptr noundef nonnull @__func__.rc2_set_ctx_params) #5
  call void (i32, i32, ptr, ...) @ERR_set_error(i32 noundef 57, i32 noundef 104, ptr noundef null) #5
  call void @ASN1_TYPE_free(ptr noundef %.025) #5
  call void @llvm.lifetime.end.p0(i64 16, ptr nonnull %5) #5
  call void @llvm.lifetime.end.p0(i64 8, ptr nonnull %4) #5
  call void @llvm.lifetime.end.p0(i64 8, ptr nonnull %3) #5
  br label %ossl_param_is_empty.exit.thread

47:                                               ; preds = %40
  call void @ASN1_TYPE_free(ptr noundef nonnull %30) #5
  %48 = load i64, ptr %45, align 8, !tbaa !3
  %49 = lshr i64 %48, 3
  %50 = getelementptr inbounds nuw i8, ptr %0, i64 72
  store i64 %49, ptr %50, align 8, !tbaa !29
  call void @llvm.lifetime.end.p0(i64 16, ptr nonnull %5) #5
  call void @llvm.lifetime.end.p0(i64 8, ptr nonnull %4) #5
  call void @llvm.lifetime.end.p0(i64 8, ptr nonnull %3) #5
  br label %ossl_param_is_empty.exit.thread

ossl_param_is_empty.exit.thread:                  ; preds = %2, %16, %47, %.critedge.critedge, %8, %ossl_param_is_empty.exit, %15
  %.027 = phi i32 [ 0, %15 ], [ 1, %ossl_param_is_empty.exit ], [ 0, %8 ], [ 0, %.critedge.critedge ], [ 1, %47 ], [ 1, %16 ], [ 1, %2 ]
  ret i32 %.027
}